target datalayout = "e-m:e-p270:32:32-p271:32:32-p272:64:64-i64:64-i128:128-f80:128-n8:16:32:64-S128"
target triple = "x86_64-pc-linux-gnu"

; Function Attrs: nounwind uwtable
define void @updataInfo(i32 noundef %0, i32 noundef %1, i32 noundef %2, ptr noundef %3, ptr noundef %4) #0 {
  %6 = alloca i32, align 4
  %7 = alloca i32, align 4
  %8 = alloca i32, align 4
  %9 = alloca ptr, align 8
  %10 = alloca ptr, align 8
  store i32 %0, ptr %6, align 4, !tbaa !8
  store i32 %1, ptr %7, align 4, !tbaa !8
  store i32 %2, ptr %8, align 4, !tbaa !8
  store ptr %3, ptr %9, align 8, !tbaa !10
  store ptr %4, ptr %10, align 8, !tbaa !12
  %11 = load ptr, ptr %9, align 8, !tbaa !10
  %12 = load ptr, ptr %10, align 8, !tbaa !12
  %13 = load i32, ptr %12, align 4, !tbaa !8
  %14 = load i32, ptr %8, align 4, !tbaa !8
  %15 = load i32, ptr %6, align 4, !tbaa !8
  %16 = load i32, ptr %7, align 4, !tbaa !8
  %17 = sub nsw i32 %15, %16
  %18 = call i32 @llvm.abs.i32(i32 %17, i1 true)
  %19 = sub nsw i32 %18, 1
  %20 = shl i32 %19, 2
  %21 = load i32, ptr %6, align 4, !tbaa !8
  %22 = add nsw i32 %20, %21
  %23 = call i32 @adjustInfoAfterSwap(ptr noundef %11, i32 noundef %13, i32 noundef %14, i32 noundef %22)
  %24 = load ptr, ptr %10, align 8, !tbaa !12
  store i32 %23, ptr %24, align 4, !tbaa !8
  ret void
}

; Function Attrs: inlinehint nounwind uwtable
define internal i32 @CompareWords(i64 noundef %0, i64 noundef %1) #5 {
  %3 = alloca i32, align 4
  %4 = alloca i64, align 8
  %5 = alloca i64, align 8
  store i64 %0, ptr %4, align 8, !tbaa !18
  store i64 %1, ptr %5, align 8, !tbaa !18
  %6 = load i64, ptr %4, align 8, !tbaa !18
  %7 = load i64, ptr %5, align 8, !tbaa !18
  %8 = icmp ugt i64 %6, %7
  br i1 %8, label %9, label %10

9:                                                ; preds = %2
  store i32 1, ptr %3, align 4
  br label %16

10:                                               ; preds = %2
  %11 = load i64, ptr %4, align 8, !tbaa !18
  %12 = load i64, ptr %5, align 8, !tbaa !18
  %13 = icmp ult i64 %11, %12
  br i1 %13, label %14, label %15

14:                                               ; preds = %10
  store i32 -1, ptr %3, align 4
  br label %16

15:                                               ; preds = %10
  store i32 0, ptr %3, align 4
  br label %16

16:                                               ; preds = %15, %14, %9
  %17 = load i32, ptr %3, align 4
  ret i32 %17
}

; Function Attrs: nounwind uwtable
define void @arrangeQuoters_superFast_moreThen5(ptr noundef %0, ptr noundef %1, i32 noundef %2, i32 noundef %3, i32 noundef %4, i32 noundef %5, i32 noundef %6, i32 noundef %7, ptr noundef %8, ptr noundef %9) #0 {
  %11 = alloca ptr, align 8
  %12 = alloca ptr, align 8
  %13 = alloca i32, align 4
  %14 = alloca i32, align 4
  %15 = alloca i32, align 4
  %16 = alloca i32, align 4
  %17 = alloca i32, align 4
  %18 = alloca i32, align 4
  %19 = alloca ptr, align 8
  %20 = alloca ptr, align 8
  %21 = alloca i32, align 4
  %22 = alloca i32, align 4
  %23 = alloca i32, align 4
  %24 = alloca i32, align 4
  %25 = alloca ptr, align 8
  %26 = alloca i32, align 4
  store ptr %0, ptr %11, align 8, !tbaa !3
  store ptr %1, ptr %12, align 8, !tbaa !3
  store i32 %2, ptr %13, align 4, !tbaa !8
  store i32 %3, ptr %14, align 4, !tbaa !8
  store i32 %4, ptr %15, align 4, !tbaa !8
  store i32 %5, ptr %16, align 4, !tbaa !8
  store i32 %6, ptr %17, align 4, !tbaa !8
  store i32 %7, ptr %18, align 4, !tbaa !8
  store ptr %8, ptr %19, align 8, !tbaa !10
  store ptr %9, ptr %20, align 8, !tbaa !12
  call void @llvm.lifetime.start.p0(i64 4, ptr %21) #7
  call void @llvm.lifetime.start.p0(i64 4, ptr %22) #7
  call void @llvm.lifetime.start.p0(i64 4, ptr %23) #7
  call void @llvm.lifetime.start.p0(i64 4, ptr %24) #7
  call void @llvm.lifetime.start.p0(i64 8, ptr %25) #7
  %27 = load ptr, ptr %12, align 8, !tbaa !3
  %28 = load i32, ptr %13, align 4, !tbaa !8
  %29 = sext i32 %28 to i64
  %30 = getelementptr inbounds i64, ptr %27, i64 %29
  store ptr %30, ptr %25, align 8, !tbaa !3
  %31 = load i32, ptr %14, align 4, !tbaa !8
  %32 = icmp eq i32 %31, 0
  br i1 %32, label %33, label %37

33:                                               ; preds = %10
  %34 = load i32, ptr %15, align 4, !tbaa !8
  %35 = icmp eq i32 %34, 1
  br i1 %35, label %36, label %37

36:                                               ; preds = %33
  store i32 1, ptr %26, align 4
  br label %141

37:                                               ; preds = %33, %10
  %38 = load i32, ptr %18, align 4, !tbaa !8
  %39 = sub nsw i32 %38, 6
  %40 = shl i32 1, %39
  store i32 %40, ptr %22, align 4, !tbaa !8
  %41 = load i32, ptr %22, align 4, !tbaa !8
  %42 = sext i32 %41 to i64
  %43 = mul i64 %42, 8
  %44 = trunc i64 %43 to i32
  store i32 %44, ptr %23, align 4, !tbaa !8
  %45 = load i32, ptr %22, align 4, !tbaa !8
  %46 = mul nsw i32 %45, 4
  store i32 %46, ptr %24, align 4, !tbaa !8
  %47 = load i32, ptr %13, align 4, !tbaa !8
  %48 = load i32, ptr %22, align 4, !tbaa !8
  %49 = sub nsw i32 %47, %48
  store i32 %49, ptr %21, align 4, !tbaa !8
  br label %50

50:                                               ; preds = %126, %37
  %51 = load i32, ptr %21, align 4, !tbaa !8
  %52 = icmp sgt i32 %51, 0
  br i1 %52, label %53, label %130

53:                                               ; preds = %50
  %54 = load i32, ptr %22, align 4, !tbaa !8
  %55 = load ptr, ptr %25, align 8, !tbaa !3
  %56 = sext i32 %54 to i64
  %57 = sub i64 0, %56
  %58 = getelementptr inbounds i64, ptr %55, i64 %57
  store ptr %58, ptr %25, align 8, !tbaa !3
  %59 = load ptr, ptr %25, align 8, !tbaa !3
  %60 = load ptr, ptr %11, align 8, !tbaa !3
  %61 = load i32, ptr %21, align 4, !tbaa !8
  %62 = sext i32 %61 to i64
  %63 = getelementptr inbounds i64, ptr %60, i64 %62
  %64 = load i32, ptr %14, align 4, !tbaa !8
  %65 = load i32, ptr %22, align 4, !tbaa !8
  %66 = mul nsw i32 %64, %65
  %67 = sext i32 %66 to i64
  %68 = sub i64 0, %67
  %69 = getelementptr inbounds i64, ptr %63, i64 %68
  %70 = load i32, ptr %23, align 4, !tbaa !8
  %71 = sext i32 %70 to i64
  call void @llvm.memcpy.p0.p0.i64(ptr align 8 %59, ptr align 8 %69, i64 %71, i1 false)
  %72 = load i32, ptr %22, align 4, !tbaa !8
  %73 = load ptr, ptr %25, align 8, !tbaa !3
  %74 = sext i32 %72 to i64
  %75 = sub i64 0, %74
  %76 = getelementptr inbounds i64, ptr %73, i64 %75
  store ptr %76, ptr %25, align 8, !tbaa !3
  %77 = load ptr, ptr %25, align 8, !tbaa !3
  %78 = load ptr, ptr %11, align 8, !tbaa !3
  %79 = load i32, ptr %21, align 4, !tbaa !8
  %80 = sext i32 %79 to i64
  %81 = getelementptr inbounds i64, ptr %78, i64 %80
  %82 = load i32, ptr %15, align 4, !tbaa !8
  %83 = load i32, ptr %22, align 4, !tbaa !8
  %84 = mul nsw i32 %82, %83
  %85 = sext i32 %84 to i64
  %86 = sub i64 0, %85
  %87 = getelementptr inbounds i64, ptr %81, i64 %86
  %88 = load i32, ptr %23, align 4, !tbaa !8
  %89 = sext i32 %88 to i64
  call void @llvm.memcpy.p0.p0.i64(ptr align 8 %77, ptr align 8 %87, i64 %89, i1 false)
  %90 = load i32, ptr %22, align 4, !tbaa !8
  %91 = load ptr, ptr %25, align 8, !tbaa !3
  %92 = sext i32 %90 to i64
  %93 = sub i64 0, %92
  %94 = getelementptr inbounds i64, ptr %91, i64 %93
  store ptr %94, ptr %25, align 8, !tbaa !3
  %95 = load ptr, ptr %25, align 8, !tbaa !3
  %96 = load ptr, ptr %11, align 8, !tbaa !3
  %97 = load i32, ptr %21, align 4, !tbaa !8
  %98 = sext i32 %97 to i64
  %99 = getelementptr inbounds i64, ptr %96, i64 %98
  %100 = load i32, ptr %16, align 4, !tbaa !8
  %101 = load i32, ptr %22, align 4, !tbaa !8
  %102 = mul nsw i32 %100, %101
  %103 = sext i32 %102 to i64
  %104 = sub i64 0, %103
  %105 = getelementptr inbounds i64, ptr %99, i64 %104
  %106 = load i32, ptr %23, align 4, !tbaa !8
  %107 = sext i32 %106 to i64
  call void @llvm.memcpy.p0.p0.i64(ptr align 8 %95, ptr align 8 %105, i64 %107, i1 false)
  %108 = load i32, ptr %22, align 4, !tbaa !8
  %109 = load ptr, ptr %25, align 8, !tbaa !3
  %110 = sext i32 %108 to i64
  %111 = sub i64 0, %110
  %112 = getelementptr inbounds i64, ptr %109, i64 %111
  store ptr %112, ptr %25, align 8, !tbaa !3
  %113 = load ptr, ptr %25, align 8, !tbaa !3
  %114 = load ptr, ptr %11, align 8, !tbaa !3
  %115 = load i32, ptr %21, align 4, !tbaa !8
  %116 = sext i32 %115 to i64
  %117 = getelementptr inbounds i64, ptr %114, i64 %116
  %118 = load i32, ptr %17, align 4, !tbaa !8
  %119 = load i32, ptr %22, align 4, !tbaa !8
  %120 = mul nsw i32 %118, %119
  %121 = sext i32 %120 to i64
  %122 = sub i64 0, %121
  %123 = getelementptr inbounds i64, ptr %117, i64 %122
  %124 = load i32, ptr %23, align 4, !tbaa !8
  %125 = sext i32 %124 to i64
  call void @llvm.memcpy.p0.p0.i64(ptr align 8 %113, ptr align 8 %123, i64 %125, i1 false)
  br label %126

126:                                              ; preds = %53
  %127 = load i32, ptr %24, align 4, !tbaa !8
  %128 = load i32, ptr %21, align 4, !tbaa !8
  %129 = sub nsw i32 %128, %127
  store i32 %129, ptr %21, align 4, !tbaa !8
  br label %50, !llvm.loop !30

130:                                              ; preds = %50
  %131 = load ptr, ptr %11, align 8, !tbaa !3
  %132 = load ptr, ptr %12, align 8, !tbaa !3
  %133 = load i32, ptr %13, align 4, !tbaa !8
  %134 = sext i32 %133 to i64
  %135 = mul i64 %134, 8
  call void @llvm.memcpy.p0.p0.i64(ptr align 8 %131, ptr align 8 %132, i64 %135, i1 false)
  %136 = load i32, ptr %14, align 4, !tbaa !8
  %137 = load i32, ptr %15, align 4, !tbaa !8
  %138 = load i32, ptr %18, align 4, !tbaa !8
  %139 = load ptr, ptr %19, align 8, !tbaa !10
  %140 = load ptr, ptr %20, align 8, !tbaa !12
  call void @updataInfo(i32 noundef %136, i32 noundef %137, i32 noundef %138, ptr noundef %139, ptr noundef %140)
  store i32 0, ptr %26, align 4
  br label %141

141:                                              ; preds = %130, %36
  call void @llvm.lifetime.end.p0(i64 8, ptr %25) #7
  call void @llvm.lifetime.end.p0(i64 4, ptr %24) #7
  call void @llvm.lifetime.end.p0(i64 4, ptr %23) #7
  call void @llvm.lifetime.end.p0(i64 4, ptr %22) #7
  call void @llvm.lifetime.end.p0(i64 4, ptr %21) #7
  %142 = load i32, ptr %26, align 4
  switch i32 %142, label %144 [
    i32 0, label %143
    i32 1, label %143
  ]

143:                                              ; preds = %141, %141
  ret void

144:                                              ; preds = %141
  unreachable
}

; Function Attrs: nounwind uwtable
define i32 @minTemp1_fast_moreThen5(ptr noundef %0, i32 noundef %1, i32 noundef %2, ptr noundef %3) #0 {
  %5 = alloca i32, align 4
  %6 = alloca ptr, align 8
  %7 = alloca i32, align 4
  %8 = alloca i32, align 4
  %9 = alloca ptr, align 8
  %10 = alloca i32, align 4
  %11 = alloca i32, align 4
  %12 = alloca i32, align 4
  %13 = alloca i32, align 4
  %14 = alloca i32, align 4
  %15 = alloca i32, align 4
  store ptr %0, ptr %6, align 8, !tbaa !3
  store i32 %1, ptr %7, align 4, !tbaa !8
  store i32 %2, ptr %8, align 4, !tbaa !8
  store ptr %3, ptr %9, align 8, !tbaa !12
  call void @llvm.lifetime.start.p0(i64 4, ptr %10) #7
  call void @llvm.lifetime.start.p0(i64 4, ptr %11) #7
  call void @llvm.lifetime.start.p0(i64 4, ptr %12) #7
  call void @llvm.lifetime.start.p0(i64 4, ptr %13) #7
  %16 = load i32, ptr %7, align 4, !tbaa !8
  %17 = sub nsw i32 %16, 6
  %18 = shl i32 1, %17
  store i32 %18, ptr %13, align 4, !tbaa !8
  call void @llvm.lifetime.start.p0(i64 4, ptr %14) #7
  %19 = load i32, ptr %13, align 4, !tbaa !8
  %20 = mul nsw i32 %19, 4
  store i32 %20, ptr %14, align 4, !tbaa !8
  %21 = load i32, ptr %8, align 4, !tbaa !8
  %22 = load i32, ptr %13, align 4, !tbaa !8
  %23 = sub nsw i32 %21, %22
  %24 = sub nsw i32 %23, 1
  store i32 %24, ptr %10, align 4, !tbaa !8
  br label %25

25:                                               ; preds = %73, %4
  %26 = load i32, ptr %10, align 4, !tbaa !8
  %27 = icmp sge i32 %26, 0
  br i1 %27, label %28, label %77

28:                                               ; preds = %25
  store i32 0, ptr %11, align 4, !tbaa !8
  br label %29

29:                                               ; preds = %69, %28
  %30 = load i32, ptr %11, align 4, !tbaa !8
  %31 = load i32, ptr %13, align 4, !tbaa !8
  %32 = icmp slt i32 %30, %31
  br i1 %32, label %33, label %72

33:                                               ; preds = %29
  %34 = load ptr, ptr %6, align 8, !tbaa !3
  %35 = load i32, ptr %10, align 4, !tbaa !8
  %36 = load i32, ptr %11, align 4, !tbaa !8
  %37 = sub nsw i32 %35, %36
  %38 = sext i32 %37 to i64
  %39 = getelementptr inbounds i64, ptr %34, i64 %38
  %40 = load i64, ptr %39, align 8, !tbaa !18
  %41 = load ptr, ptr %6, align 8, !tbaa !3
  %42 = load i32, ptr %10, align 4, !tbaa !8
  %43 = load i32, ptr %11, align 4, !tbaa !8
  %44 = sub nsw i32 %42, %43
  %45 = load i32, ptr %13, align 4, !tbaa !8
  %46 = sub nsw i32 %44, %45
  %47 = sext i32 %46 to i64
  %48 = getelementptr inbounds i64, ptr %41, i64 %47
  %49 = load i64, ptr %48, align 8, !tbaa !18
  %50 = call i32 @CompareWords(i64 noundef %40, i64 noundef %49)
  store i32 %50, ptr %12, align 4, !tbaa !8
  %51 = load i32, ptr %12, align 4, !tbaa !8
  %52 = icmp eq i32 %51, 0
  br i1 %52, label %53, label %54

53:                                               ; preds = %33
  br label %69

54:                                               ; preds = %33
  %55 = load i32, ptr %12, align 4, !tbaa !8
  %56 = icmp eq i32 %55, -1
  br i1 %56, label %57, label %63

57:                                               ; preds = %54
  %58 = load i32, ptr %10, align 4, !tbaa !8
  %59 = load i32, ptr %13, align 4, !tbaa !8
  %60 = add nsw i32 %58, %59
  %61 = add nsw i32 %60, 1
  %62 = load ptr, ptr %9, align 8, !tbaa !12
  store i32 %61, ptr %62, align 4, !tbaa !8
  store i32 1, ptr %5, align 4
  store i32 1, ptr %15, align 4
  br label %79

63:                                               ; preds = %54
  %64 = load i32, ptr %10, align 4, !tbaa !8
  %65 = load i32, ptr %13, align 4, !tbaa !8
  %66 = add nsw i32 %64, %65
  %67 = add nsw i32 %66, 1
  %68 = load ptr, ptr %9, align 8, !tbaa !12
  store i32 %67, ptr %68, align 4, !tbaa !8
  store i32 2, ptr %5, align 4
  store i32 1, ptr %15, align 4
  br label %79

69:                                               ; preds = %53
  %70 = load i32, ptr %11, align 4, !tbaa !8
  %71 = add nsw i32 %70, 1
  store i32 %71, ptr %11, align 4, !tbaa !8
  br label %29, !llvm.loop !33

72:                                               ; preds = %29
  br label %73

73:                                               ; preds = %72
  %74 = load i32, ptr %14, align 4, !tbaa !8
  %75 = load i32, ptr %10, align 4, !tbaa !8
  %76 = sub nsw i32 %75, %74
  store i32 %76, ptr %10, align 4, !tbaa !8
  br label %25, !llvm.loop !34

77:                                               ; preds = %25
  %78 = load ptr, ptr %9, align 8, !tbaa !12
  store i32 0, ptr %78, align 4, !tbaa !8
  store i32 1, ptr %5, align 4
  store i32 1, ptr %15, align 4
  br label %79

79:                                               ; preds = %77, %63, %57
  call void @llvm.lifetime.end.p0(i64 4, ptr %14) #7
  call void @llvm.lifetime.end.p0(i64 4, ptr %13) #7
  call void @llvm.lifetime.end.p0(i64 4, ptr %12) #7
  call void @llvm.lifetime.end.p0(i64 4, ptr %11) #7
  call void @llvm.lifetime.end.p0(i64 4, ptr %10) #7
  %80 = load i32, ptr %5, align 4
  ret i32 %80
}

; Function Attrs: nounwind uwtable
define void @minimalSwapAndFlipIVar_superFast_moreThen5_noEBFC(ptr noundef %0, i32 noundef %1, i32 noundef %2, ptr noundef %3, ptr noundef %4) #0 {
  %6 = alloca ptr, align 8
  %7 = alloca i32, align 4
  %8 = alloca i32, align 4
  %9 = alloca ptr, align 8
  %10 = alloca ptr, align 8
  %11 = alloca i32, align 4
  %12 = alloca [1024 x i64], align 16
  store ptr %0, ptr %6, align 8, !tbaa !3
  store i32 %1, ptr %7, align 4, !tbaa !8
  store i32 %2, ptr %8, align 4, !tbaa !8
  store ptr %3, ptr %9, align 8, !tbaa !10
  store ptr %4, ptr %10, align 8, !tbaa !12
  call void @llvm.lifetime.start.p0(i64 4, ptr %11) #7
  call void @llvm.lifetime.start.p0(i64 8192, ptr %12) #7
  %13 = load ptr, ptr %6, align 8, !tbaa !3
  %14 = load i32, ptr %7, align 4, !tbaa !8
  %15 = load i32, ptr %8, align 4, !tbaa !8
  %16 = call i32 @minTemp1_fast_moreThen5(ptr noundef %13, i32 noundef %14, i32 noundef %15, ptr noundef %11)
  %17 = icmp eq i32 %16, 2
  br i1 %17, label %18, label %25

18:                                               ; preds = %5
  %19 = load ptr, ptr %6, align 8, !tbaa !3
  %20 = getelementptr inbounds [1024 x i64], ptr %12, i64 0, i64 0
  %21 = load i32, ptr %11, align 4, !tbaa !8
  %22 = load i32, ptr %7, align 4, !tbaa !8
  %23 = load ptr, ptr %9, align 8, !tbaa !10
  %24 = load ptr, ptr %10, align 8, !tbaa !12
  call void @arrangeQuoters_superFast_moreThen5(ptr noundef %19, ptr noundef %20, i32 noundef %21, i32 noundef 0, i32 noundef 2, i32 noundef 1, i32 noundef 3, i32 noundef %22, ptr noundef %23, ptr noundef %24)
  br label %25

25:                                               ; preds = %18, %5
  call void @llvm.lifetime.end.p0(i64 8192, ptr %12) #7
  call void @llvm.lifetime.end.p0(i64 4, ptr %11) #7
  ret void
}