; Function Attrs: nounwind uwtable
define void @minimalSwapAndFlipIVar_superFast_moreThen5_noEBFC(ptr noundef captures(none) %0, i32 noundef %1, i32 noundef %2, ptr noundef %3, ptr noundef captures(none) %4) local_unnamed_addr #0 {
  %6 = alloca [1024 x i64], align 16
  call void @llvm.lifetime.start.p0(i64 8192, ptr nonnull %6) #9
  %7 = add nsw i32 %1, -6
  %8 = shl nuw i32 1, %7
  %.neg.i = shl i32 -4, %7
  %9 = xor i32 %8, -1
  %10 = add i32 %2, %9
  %11 = icmp slt i32 %10, 0
  %.not.i = icmp eq i32 %7, 31
  %or.cond.i = or i1 %.not.i, %11
  br i1 %or.cond.i, label %minTemp1_fast_moreThen5.exit.thread, label %.preheader.us.preheader.i

.preheader.us.preheader.i:                        ; preds = %5
  %12 = sext i32 %8 to i64
  %smax.i = tail call i32 @llvm.smax.i32(i32 %8, i32 1)
  %wide.trip.count.i = zext nneg i32 %smax.i to i64
  br label %.preheader.us.i

.preheader.us.i:                                  ; preds = %._crit_edge.us.i, %.preheader.us.preheader.i
  %.02633.us.i = phi i32 [ %22, %._crit_edge.us.i ], [ %10, %.preheader.us.preheader.i ]
  %13 = zext nneg i32 %.02633.us.i to i64
  br label %14

14:                                               ; preds = %21, %.preheader.us.i
  %indvars.iv.i = phi i64 [ 0, %.preheader.us.i ], [ %indvars.iv.next.i, %21 ]
  %15 = sub nsw i64 %13, %indvars.iv.i
  %16 = getelementptr inbounds i64, ptr %0, i64 %15
  %17 = load i64, ptr %16, align 8, !tbaa !11
  %18 = sub nsw i64 %15, %12
  %19 = getelementptr inbounds i64, ptr %0, i64 %18
  %20 = load i64, ptr %19, align 8, !tbaa !11
  %.0.i.us.i = tail call range(i32 -1, 2) i32 @llvm.ucmp.i32.i64(i64 %17, i64 %20)
  switch i32 %.0.i.us.i, label %24 [
    i32 0, label %21
    i32 -1, label %minTemp1_fast_moreThen5.exit.thread
  ]

21:                                               ; preds = %14
  %indvars.iv.next.i = add nuw nsw i64 %indvars.iv.i, 1
  %exitcond.not.i = icmp eq i64 %indvars.iv.next.i, %wide.trip.count.i
  br i1 %exitcond.not.i, label %._crit_edge.us.i, label %14, !llvm.loop !26

._crit_edge.us.i:                                 ; preds = %21
  %22 = add i32 %.02633.us.i, %.neg.i
  %23 = icmp sgt i32 %22, -1
  br i1 %23, label %.preheader.us.i, label %minTemp1_fast_moreThen5.exit.thread, !llvm.loop !27

24:                                               ; preds = %14
  %25 = add nuw i32 %8, 1
  %26 = add i32 %25, %.02633.us.i
  %27 = sext i32 %26 to i64
  %28 = sub nsw i32 %26, %8
  %29 = icmp sgt i32 %28, 0
  br i1 %29, label %.lr.ph.i, label %arrangeQuoters_superFast_moreThen5.exit

.lr.ph.i:                                         ; preds = %24
  %30 = shl i32 8, %7
  %31 = getelementptr inbounds i64, ptr %6, i64 %27
  %32 = sub nsw i64 0, %12
  %33 = sext i32 %30 to i64
  %34 = shl i32 2, %7
  %35 = sext i32 %34 to i64
  %36 = sub nsw i64 0, %35
  %37 = shl i32 3, %7
  %38 = sext i32 %37 to i64
  %39 = sub nsw i64 0, %38
  br label %40

40:                                               ; preds = %40, %.lr.ph.i
  %.054.i = phi ptr [ %31, %.lr.ph.i ], [ %48, %40 ]
  %.05253.i = phi i32 [ %28, %.lr.ph.i ], [ %50, %40 ]
  %41 = getelementptr inbounds i64, ptr %.054.i, i64 %32
  %42 = zext nneg i32 %.05253.i to i64
  %43 = getelementptr inbounds nuw i64, ptr %0, i64 %42
  call void @llvm.memcpy.p0.p0.i64(ptr nonnull align 8 %41, ptr nonnull align 8 %43, i64 %33, i1 false)
  %44 = getelementptr inbounds i64, ptr %41, i64 %32
  %45 = getelementptr inbounds i64, ptr %43, i64 %36
  call void @llvm.memcpy.p0.p0.i64(ptr nonnull align 8 %44, ptr nonnull align 8 %45, i64 %33, i1 false)
  %46 = getelementptr inbounds i64, ptr %44, i64 %32
  %47 = getelementptr inbounds i64, ptr %43, i64 %32
  call void @llvm.memcpy.p0.p0.i64(ptr nonnull align 8 %46, ptr nonnull align 8 %47, i64 %33, i1 false)
  %48 = getelementptr inbounds i64, ptr %46, i64 %32
  %49 = getelementptr inbounds i64, ptr %43, i64 %39
  call void @llvm.memcpy.p0.p0.i64(ptr nonnull align 8 %48, ptr nonnull align 8 %49, i64 %33, i1 false)
  %50 = add i32 %.05253.i, %.neg.i
  %51 = icmp sgt i32 %50, 0
  br i1 %51, label %40, label %arrangeQuoters_superFast_moreThen5.exit, !llvm.loop !23

arrangeQuoters_superFast_moreThen5.exit:          ; preds = %40, %24
  %52 = shl nsw i64 %27, 3
  call void @llvm.memcpy.p0.p0.i64(ptr align 8 %0, ptr nonnull align 16 %6, i64 %52, i1 false)
  %53 = load i32, ptr %4, align 4, !tbaa !6
  %54 = tail call i32 @adjustInfoAfterSwap(ptr noundef %3, i32 noundef %53, i32 noundef %1, i32 noundef 4) #9
  store i32 %54, ptr %4, align 4, !tbaa !6
  br label %minTemp1_fast_moreThen5.exit.thread

minTemp1_fast_moreThen5.exit.thread:              ; preds = %._crit_edge.us.i, %14, %5, %arrangeQuoters_superFast_moreThen5.exit
  call void @llvm.lifetime.end.p0(i64 8192, ptr nonnull %6) #9
  ret void
}